; Function Attrs: nounwind uwtable
define ptr @l_Int_reduceBmod___boxed(ptr noundef %0, ptr noundef %1, ptr noundef %2, ptr noundef %3, ptr noundef %4, ptr noundef %5, ptr noundef %6, ptr noundef %7, ptr noundef %8) #1 {
  %10 = load ptr, ptr @l_Int_reduceBmod___closed__2, align 8, !tbaa !11
  %11 = load ptr, ptr @l_Int_reduceBmod___closed__3, align 8, !tbaa !11
  %12 = tail call ptr @l_Int_reduceBinIntNatOp(ptr noundef %10, ptr noundef %11, ptr noundef %0, ptr readnone poison, ptr readnone poison, ptr readnone poison, ptr noundef %4, ptr noundef %5, ptr noundef %6, ptr noundef %7, ptr noundef %8)
  %13 = ptrtoint ptr %3 to i64
  %14 = and i64 %13, 1
  %.not = icmp eq i64 %14, 0
  br i1 %.not, label %15, label %lean_dec.exit16

15:                                               ; preds = %9
  %16 = load i32, ptr %3, align 4, !tbaa !6
  %17 = icmp sgt i32 %16, 1
  br i1 %17, label %18, label %20, !prof !5

18:                                               ; preds = %15
  %19 = add nsw i32 %16, -1
  store i32 %19, ptr %3, align 4, !tbaa !6
  br label %lean_dec.exit16

20:                                               ; preds = %15
  %.not.i = icmp eq i32 %16, 0
  br i1 %.not.i, label %lean_dec.exit16, label %21

21:                                               ; preds = %20
  tail call void @lean_dec_ref_cold(ptr noundef nonnull %3) #5
  br label %lean_dec.exit16

lean_dec.exit16:                                  ; preds = %21, %20, %18, %9
  %22 = ptrtoint ptr %2 to i64
  %23 = and i64 %22, 1
  %.not23 = icmp eq i64 %23, 0
  br i1 %.not23, label %24, label %lean_dec.exit15

24:                                               ; preds = %lean_dec.exit16
  %25 = load i32, ptr %2, align 4, !tbaa !6
  %26 = icmp sgt i32 %25, 1
  br i1 %26, label %27, label %29, !prof !5

27:                                               ; preds = %24
  %28 = add nsw i32 %25, -1
  store i32 %28, ptr %2, align 4, !tbaa !6
  br label %lean_dec.exit15

29:                                               ; preds = %24
  %.not.i17 = icmp eq i32 %25, 0
  br i1 %.not.i17, label %lean_dec.exit15, label %30

30:                                               ; preds = %29
  tail call void @lean_dec_ref_cold(ptr noundef nonnull %2) #5
  br label %lean_dec.exit15

lean_dec.exit15:                                  ; preds = %30, %29, %27, %lean_dec.exit16
  %31 = ptrtoint ptr %1 to i64
  %32 = and i64 %31, 1
  %.not24 = icmp eq i64 %32, 0
  br i1 %.not24, label %33, label %lean_dec.exit14

33:                                               ; preds = %lean_dec.exit15
  %34 = load i32, ptr %1, align 4, !tbaa !6
  %35 = icmp sgt i32 %34, 1
  br i1 %35, label %36, label %38, !prof !5

36:                                               ; preds = %33
  %37 = add nsw i32 %34, -1
  store i32 %37, ptr %1, align 4, !tbaa !6
  br label %lean_dec.exit14

38:                                               ; preds = %33
  %.not.i19 = icmp eq i32 %34, 0
  br i1 %.not.i19, label %lean_dec.exit14, label %39

39:                                               ; preds = %38
  tail call void @lean_dec_ref_cold(ptr noundef nonnull %1) #5
  br label %lean_dec.exit14

lean_dec.exit14:                                  ; preds = %39, %38, %36, %lean_dec.exit15
  %40 = ptrtoint ptr %0 to i64
  %41 = and i64 %40, 1
  %.not25 = icmp eq i64 %41, 0
  br i1 %.not25, label %42, label %lean_dec.exit

42:                                               ; preds = %lean_dec.exit14
  %43 = load i32, ptr %0, align 4, !tbaa !6
  %44 = icmp sgt i32 %43, 1
  br i1 %44, label %45, label %47, !prof !5

45:                                               ; preds = %42
  %46 = add nsw i32 %43, -1
  store i32 %46, ptr %0, align 4, !tbaa !6
  br label %lean_dec.exit

47:                                               ; preds = %42
  %.not.i21 = icmp eq i32 %43, 0
  br i1 %.not.i21, label %lean_dec.exit, label %48

48:                                               ; preds = %47
  tail call void @lean_dec_ref_cold(ptr noundef nonnull %0) #5
  br label %lean_dec.exit

lean_dec.exit:                                    ; preds = %48, %47, %45, %lean_dec.exit14
  ret ptr %12
}